target datalayout = "e-m:e-p270:32:32-p271:32:32-p272:64:64-i64:64-i128:128-f80:128-n8:16:32:64-S128"
target triple = "x86_64-pc-linux-gnu"

%struct._GSList = type { ptr, ptr }
%struct._GPtrArray = type { ptr, i32 }
%struct.ws_iana_ip_special_block = type { i32, %union.anon, ptr, i32, i32, i32, i32, i32 }
%union.anon = type { %struct.ipv6_addr_and_prefix }
%struct.ipv6_addr_and_prefix = type { %struct.e_in6_addr, i32 }
%struct.e_in6_addr = type { [16 x i8] }
%struct.ipv4_addr_and_mask = type { i32, i32 }

@.str.2 = private unnamed_addr constant [1 x i8] zeroinitializer, align 1
@.str.3 = private unnamed_addr constant [37 x i8] c"plugins/epan/dfilter/ipaddr/ipaddr.c\00", align 1
@__func__.lookup_block = private unnamed_addr constant [13 x i8] c"lookup_block\00", align 1
@.str.4 = private unnamed_addr constant [31 x i8] c"assertion \22not reached\22 failed\00", align 1

; Function Attrs: null_pointer_is_valid sspstrong uwtable
define internal ptr @lookup_block(ptr noundef %0) #0 {
  %2 = alloca ptr, align 8
  %3 = alloca ptr, align 8
  store ptr %0, ptr %3, align 8
  %4 = load ptr, ptr %3, align 8
  %5 = call i32 @fvalue_type_ftenum(ptr noundef %4)
  switch i32 %5, label %17 [
    i32 32, label %6
    i32 33, label %12
  ]

6:                                                ; preds = %1
  %7 = load ptr, ptr %3, align 8
  %8 = call ptr @fvalue_get_ipv4(ptr noundef %7)
  %9 = getelementptr inbounds nuw %struct.ipv4_addr_and_mask, ptr %8, i32 0, i32 0
  %10 = load i32, ptr %9, align 4
  %11 = call ptr @ws_iana_ipv4_special_block_lookup(i32 noundef %10)
  store ptr %11, ptr %2, align 8
  br label %19

12:                                               ; preds = %1
  %13 = load ptr, ptr %3, align 8
  %14 = call ptr @fvalue_get_ipv6(ptr noundef %13)
  %15 = getelementptr inbounds nuw %struct.ipv6_addr_and_prefix, ptr %14, i32 0, i32 0
  %16 = call ptr @ws_iana_ipv6_special_block_lookup(ptr noundef %15)
  store ptr %16, ptr %2, align 8
  br label %19

17:                                               ; preds = %1
  br label %18

18:                                               ; preds = %17
  call void (ptr, i32, ptr, i64, ptr, ptr, ...) @ws_log_fatal_full(ptr noundef @.str.2, i32 noundef 7, ptr noundef @.str.3, i64 noundef 43, ptr noundef @__func__.lookup_block, ptr noundef @.str.4) #9
  unreachable

19:                                               ; preds = %12, %6
  %20 = load ptr, ptr %2, align 8
  ret ptr %20
}

; Function Attrs: null_pointer_is_valid sspstrong uwtable
define internal zeroext i1 @df_func_ip_special_name(ptr noundef %0, i32 noundef %1, ptr noundef %2) #0 {
  %4 = alloca i1, align 1
  %5 = alloca ptr, align 8
  %6 = alloca i32, align 4
  %7 = alloca ptr, align 8
  %8 = alloca ptr, align 8
  %9 = alloca ptr, align 8
  %10 = alloca ptr, align 8
  %11 = alloca i32, align 4
  %12 = alloca i32, align 4
  store ptr %0, ptr %5, align 8
  store i32 %1, ptr %6, align 4
  store ptr %2, ptr %7, align 8
  call void @llvm.lifetime.start.p0(i64 8, ptr %8) #8
  call void @llvm.lifetime.start.p0(i64 8, ptr %9) #8
  call void @llvm.lifetime.start.p0(i64 8, ptr %10) #8
  br label %13

13:                                               ; preds = %3
  br label %14

14:                                               ; preds = %13
  br label %15

15:                                               ; preds = %14
  %16 = load ptr, ptr %5, align 8
  %17 = getelementptr inbounds nuw %struct._GSList, ptr %16, i32 0, i32 0
  %18 = load ptr, ptr %17, align 8
  store ptr %18, ptr %8, align 8
  %19 = load ptr, ptr %8, align 8
  %20 = icmp eq ptr %19, null
  br i1 %20, label %21, label %22

21:                                               ; preds = %15
  store i1 false, ptr %4, align 1
  store i32 1, ptr %11, align 4
  br label %57

22:                                               ; preds = %15
  call void @llvm.lifetime.start.p0(i64 4, ptr %12) #8
  store i32 0, ptr %12, align 4
  br label %23

23:                                               ; preds = %50, %22
  %24 = load i32, ptr %12, align 4
  %25 = load ptr, ptr %8, align 8
  %26 = getelementptr inbounds nuw %struct._GPtrArray, ptr %25, i32 0, i32 1
  %27 = load i32, ptr %26, align 8
  %28 = icmp ult i32 %24, %27
  br i1 %28, label %30, label %29

29:                                               ; preds = %23
  store i32 4, ptr %11, align 4
  call void @llvm.lifetime.end.p0(i64 4, ptr %12) #8
  br label %53

30:                                               ; preds = %23
  %31 = load ptr, ptr %8, align 8
  %32 = getelementptr inbounds nuw %struct._GPtrArray, ptr %31, i32 0, i32 0
  %33 = load ptr, ptr %32, align 8
  %34 = load i32, ptr %12, align 4
  %35 = zext i32 %34 to i64
  %36 = getelementptr ptr, ptr %33, i64 %35
  %37 = load ptr, ptr %36, align 8
  %38 = call ptr @lookup_block(ptr noundef %37)
  store ptr %38, ptr %10, align 8
  %39 = load ptr, ptr %10, align 8
  %40 = icmp eq ptr %39, null
  br i1 %40, label %41, label %42

41:                                               ; preds = %30
  br label %50

42:                                               ; preds = %30
  %43 = call ptr @fvalue_new(i32 noundef 26)
  store ptr %43, ptr %9, align 8
  %44 = load ptr, ptr %9, align 8
  %45 = load ptr, ptr %10, align 8
  %46 = getelementptr inbounds nuw %struct.ws_iana_ip_special_block, ptr %45, i32 0, i32 2
  %47 = load ptr, ptr %46, align 8
  call void @fvalue_set_string(ptr noundef %44, ptr noundef %47)
  %48 = load ptr, ptr %7, align 8
  %49 = load ptr, ptr %9, align 8
  call void @df_cell_append(ptr noundef %48, ptr noundef %49)
  br label %50

50:                                               ; preds = %42, %41
  %51 = load i32, ptr %12, align 4
  %52 = add i32 %51, 1
  store i32 %52, ptr %12, align 4
  br label %23, !llvm.loop !6

53:                                               ; preds = %29
  %54 = load ptr, ptr %7, align 8
  %55 = call zeroext i1 @df_cell_is_empty(ptr noundef %54)
  %56 = xor i1 %55, true
  store i1 %56, ptr %4, align 1
  store i32 1, ptr %11, align 4
  br label %57

57:                                               ; preds = %53, %21
  call void @llvm.lifetime.end.p0(i64 8, ptr %10) #8
  call void @llvm.lifetime.end.p0(i64 8, ptr %9) #8
  call void @llvm.lifetime.end.p0(i64 8, ptr %8) #8
  %58 = load i1, ptr %4, align 1
  ret i1 %58
}